Archive member included to satisfy reference by file (symbol)

/usr/lib/gcc/arm-none-eabi/9.2.1/libgcc.a(_udivsi3.o)
                              build/stdio.o (__aeabi_uidiv)
/usr/lib/gcc/arm-none-eabi/9.2.1/libgcc.a(_dvmd_tls.o)
                              /usr/lib/gcc/arm-none-eabi/9.2.1/libgcc.a(_udivsi3.o) (__aeabi_idiv0)

Allocating common symbols
Common symbol       size              file

sMsgQ               0x618             build/msg.o

Memory Configuration

Name             Origin             Length             Attributes
*default*        0x0000000000000000 0xffffffffffffffff

Linker script and memory map

LOAD build/Entry.os
LOAD build/Main.o
LOAD build/Handler.o
LOAD build/Regs.o
LOAD build/Interrupt.o
LOAD build/Uart.o
LOAD build/Timer.o
LOAD build/stdlib.o
LOAD build/stdio.o
LOAD build/armcpu.o
LOAD build/task.o
LOAD build/msg.o
LOAD build/event.o
LOAD build/synch.o
LOAD build/Kernel.o
LOAD /usr/lib/gcc/arm-none-eabi/9.2.1/libgcc.a
                0x0000000000000000                . = 0x0

.text           0x0000000000000000     0x221c
 *(vector_start)
 *(.text .rodata)
 .text          0x0000000000000000       0xd4 build/Entry.os
                0x0000000000000000                vector_start
                0x000000000000003c                vector_end
 .text          0x00000000000000d4      0x4f8 build/Main.o
                0x00000000000000d4                main
                0x0000000000000368                User_task0
                0x00000000000004d0                User_task1
                0x0000000000000590                User_task2
 .rodata        0x00000000000005cc      0x199 build/Main.o
 *fill*         0x0000000000000765        0x3 
 .text          0x0000000000000768       0x24 build/Handler.o
                0x0000000000000768                Irq_Handler
                0x0000000000000784                Fiq_Handler
 .text          0x000000000000078c        0x0 build/Regs.o
 .text          0x000000000000078c      0x2f8 build/Interrupt.o
                0x000000000000078c                Hal_interrupt_init
                0x0000000000000828                Hal_interrupt_enable
                0x00000000000008f4                Hal_interrupt_disable
                0x00000000000009c8                Hal_interrupt_register_handler
                0x0000000000000a00                Hal_interrupt_run_handler
 .text          0x0000000000000a84      0x1e8 build/Uart.o
                0x0000000000000a84                Hal_uart_init
                0x0000000000000b24                Hal_uart_put_char
                0x0000000000000b80                Hal_uart_get_char
 .text          0x0000000000000c6c      0x1c8 build/Timer.o
                0x0000000000000c6c                Hal_timer_init
                0x0000000000000e10                Hal_timer_get_1ms_counter
 .text          0x0000000000000e34       0xa8 build/stdlib.o
                0x0000000000000e34                delay
                0x0000000000000e80                memclr
 .text          0x0000000000000edc      0x444 build/stdio.o
                0x0000000000000edc                putstr
                0x0000000000000f3c                debug_printf
                0x0000000000000f8c                vsprintf
                0x000000000000120c                utoa
 .rodata        0x0000000000001320        0x7 build/stdio.o
 *fill*         0x0000000000001327        0x1 
 .text          0x0000000000001328       0xb0 build/armcpu.o
                0x0000000000001328                enable_irq
                0x0000000000001354                enable_fiq
                0x0000000000001380                disalbe_irq
                0x00000000000013ac                disable_fiq
 .text          0x00000000000013d8      0x300 build/task.o
                0x00000000000013d8                Kernel_task_init
                0x00000000000014e4                Kernel_task_start
                0x0000000000001520                Kernel_task_create
                0x0000000000001634                Kernel_task_scheduler
                0x0000000000001684                Kernel_task_context_switching
                0x0000000000001690                Save_context
                0x00000000000016b0                Restore_context
 .text          0x00000000000016d8      0x530 build/msg.o
                0x00000000000016d8                Kernel_msgQ_init
                0x0000000000001784                Kernel_msgQ_is_empty
                0x000000000000180c                Kernel_msgQ_is_full
                0x000000000000189c                Kernel_msgQ_size
                0x00000000000019a4                Kernel_msgQ_empty_space
                0x00000000000019ec                Kernel_msgQ_enqueue
                0x0000000000001b24                Kernel_msgQ_dequeue
 .text          0x0000000000001c08       0xf8 build/event.o
                0x0000000000001c08                Kernel_event_flag_init
                0x0000000000001c30                Kernel_event_flag_set
                0x0000000000001c70                Kernel_event_flag_clear
                0x0000000000001cb4                Kernel_event_flag_check
 .text          0x0000000000001d00      0x138 build/synch.o
                0x0000000000001d00                Kernel_sem_init
                0x0000000000001d78                Kernel_sem_test
                0x0000000000001dcc                Kernel_sem_release
 .text          0x0000000000001e38      0x2cc build/Kernel.o
                0x0000000000001e38                Kernel_start
                0x0000000000001e4c                Kernel_yield
                0x0000000000001e60                Kernel_send_events
                0x0000000000001ee8                Kernel_wait_events
                0x0000000000001f84                Kernel_send_msg
                0x0000000000002028                Kernel_recv_msg
                0x00000000000020bc                Kernel_lock_sem
                0x00000000000020f0                Kernel_unlock_sem
 .text          0x0000000000002104      0x114 /usr/lib/gcc/arm-none-eabi/9.2.1/libgcc.a(_udivsi3.o)
                0x0000000000002104                __udivsi3
                0x0000000000002104                __aeabi_uidiv
                0x00000000000021f8                __aeabi_uidivmod
 .text          0x0000000000002218        0x4 /usr/lib/gcc/arm-none-eabi/9.2.1/libgcc.a(_dvmd_tls.o)
                0x0000000000002218                __aeabi_ldiv0
                0x0000000000002218                __aeabi_idiv0

.glue_7         0x000000000000221c        0x0
 .glue_7        0x000000000000221c        0x0 linker stubs

.glue_7t        0x000000000000221c        0x0
 .glue_7t       0x000000000000221c        0x0 linker stubs

.vfp11_veneer   0x000000000000221c        0x0
 .vfp11_veneer  0x000000000000221c        0x0 linker stubs

.v4_bx          0x000000000000221c        0x0
 .v4_bx         0x000000000000221c        0x0 linker stubs

.iplt           0x000000000000221c        0x0
 .iplt          0x000000000000221c        0x0 build/Entry.os

.rel.dyn        0x000000000000221c        0x0
 .rel.iplt      0x000000000000221c        0x0 build/Entry.os

.data           0x000000000000221c       0x10
 *(.data)
 .data          0x000000000000221c        0x0 build/Entry.os
 .data          0x000000000000221c        0x0 build/Main.o
 .data          0x000000000000221c        0x0 build/Handler.o
 .data          0x000000000000221c       0x10 build/Regs.o
                0x000000000000221c                Uart
                0x0000000000002220                GicCpu
                0x0000000000002224                GicDist
                0x0000000000002228                Timer
 .data          0x000000000000222c        0x0 build/Interrupt.o
 .data          0x000000000000222c        0x0 build/Uart.o
 .data          0x000000000000222c        0x0 build/Timer.o
 .data          0x000000000000222c        0x0 build/stdlib.o
 .data          0x000000000000222c        0x0 build/stdio.o
 .data          0x000000000000222c        0x0 build/armcpu.o
 .data          0x000000000000222c        0x0 build/task.o
 .data          0x000000000000222c        0x0 build/msg.o
 .data          0x000000000000222c        0x0 build/event.o
 .data          0x000000000000222c        0x0 build/synch.o
 .data          0x000000000000222c        0x0 build/Kernel.o
 .data          0x000000000000222c        0x0 /usr/lib/gcc/arm-none-eabi/9.2.1/libgcc.a(_udivsi3.o)
 .data          0x000000000000222c        0x0 /usr/lib/gcc/arm-none-eabi/9.2.1/libgcc.a(_dvmd_tls.o)

.igot.plt       0x000000000000222c        0x0
 .igot.plt      0x000000000000222c        0x0 build/Entry.os

.bss            0x000000000000222c     0x1038
 *(.bss)
 .bss           0x000000000000222c        0x0 build/Entry.os
 .bss           0x000000000000222c        0x4 build/Main.o
 .bss           0x0000000000002230        0x0 build/Handler.o
 .bss           0x0000000000002230        0x0 build/Regs.o
 .bss           0x0000000000002230      0x3fc build/Interrupt.o
 .bss           0x000000000000262c        0x0 build/Uart.o
 .bss           0x000000000000262c        0x4 build/Timer.o
 .bss           0x0000000000002630        0x0 build/stdlib.o
 .bss           0x0000000000002630      0x400 build/stdio.o
 .bss           0x0000000000002a30        0x0 build/armcpu.o
 .bss           0x0000000000002a30      0x210 build/task.o
 .bss           0x0000000000002c40        0x0 build/msg.o
 .bss           0x0000000000002c40        0x4 build/event.o
 .bss           0x0000000000002c44        0x8 build/synch.o
 .bss           0x0000000000002c4c        0x0 build/Kernel.o
 .bss           0x0000000000002c4c        0x0 /usr/lib/gcc/arm-none-eabi/9.2.1/libgcc.a(_udivsi3.o)
 .bss           0x0000000000002c4c        0x0 /usr/lib/gcc/arm-none-eabi/9.2.1/libgcc.a(_dvmd_tls.o)
 COMMON         0x0000000000002c4c      0x618 build/msg.o
                0x0000000000002c4c                sMsgQ
OUTPUT(build/eos.axf elf32-littlearm)
LOAD linker stubs

.ARM.attributes
                0x0000000000000000       0x2d
 .ARM.attributes
                0x0000000000000000       0x1f build/Entry.os
 .ARM.attributes
                0x000000000000001f       0x31 build/Main.o
 .ARM.attributes
                0x0000000000000050       0x31 build/Handler.o
 .ARM.attributes
                0x0000000000000081       0x37 build/Regs.o
 .ARM.attributes
                0x00000000000000b8       0x31 build/Interrupt.o
 .ARM.attributes
                0x00000000000000e9       0x31 build/Uart.o
 .ARM.attributes
                0x000000000000011a       0x31 build/Timer.o
 .ARM.attributes
                0x000000000000014b       0x31 build/stdlib.o
 .ARM.attributes
                0x000000000000017c       0x31 build/stdio.o
 .ARM.attributes
                0x00000000000001ad       0x31 build/armcpu.o
 .ARM.attributes
                0x00000000000001de       0x31 build/task.o
 .ARM.attributes
                0x000000000000020f       0x31 build/msg.o
 .ARM.attributes
                0x0000000000000240       0x31 build/event.o
 .ARM.attributes
                0x0000000000000271       0x31 build/synch.o
 .ARM.attributes
                0x00000000000002a2       0x31 build/Kernel.o
 .ARM.attributes
                0x00000000000002d3       0x1c /usr/lib/gcc/arm-none-eabi/9.2.1/libgcc.a(_udivsi3.o)
 .ARM.attributes
                0x00000000000002ef       0x1c /usr/lib/gcc/arm-none-eabi/9.2.1/libgcc.a(_dvmd_tls.o)

.comment        0x0000000000000000       0x59
 .comment       0x0000000000000000       0x59 build/Main.o
                                         0x5a (size before relaxing)
 .comment       0x0000000000000059       0x5a build/Handler.o
 .comment       0x0000000000000059       0x5a build/Regs.o
 .comment       0x0000000000000059       0x5a build/Interrupt.o
 .comment       0x0000000000000059       0x5a build/Uart.o
 .comment       0x0000000000000059       0x5a build/Timer.o
 .comment       0x0000000000000059       0x5a build/stdlib.o
 .comment       0x0000000000000059       0x5a build/stdio.o
 .comment       0x0000000000000059       0x5a build/armcpu.o
 .comment       0x0000000000000059       0x5a build/task.o
 .comment       0x0000000000000059       0x5a build/msg.o
 .comment       0x0000000000000059       0x5a build/event.o
 .comment       0x0000000000000059       0x5a build/synch.o
 .comment       0x0000000000000059       0x5a build/Kernel.o

.debug_line     0x0000000000000000      0xe76
 .debug_line    0x0000000000000000       0x6d build/Entry.os
 .debug_line    0x000000000000006d      0x1b3 build/Main.o
 .debug_line    0x0000000000000220       0x4c build/Handler.o
 .debug_line    0x000000000000026c       0x6e build/Regs.o
 .debug_line    0x00000000000002da      0x128 build/Interrupt.o
 .debug_line    0x0000000000000402      0x11d build/Uart.o
 .debug_line    0x000000000000051f       0xd4 build/Timer.o
 .debug_line    0x00000000000005f3       0x80 build/stdlib.o
 .debug_line    0x0000000000000673      0x17d build/stdio.o
 .debug_line    0x00000000000007f0       0x6f build/armcpu.o
 .debug_line    0x000000000000085f      0x151 build/task.o
 .debug_line    0x00000000000009b0      0x160 build/msg.o
 .debug_line    0x0000000000000b10       0x89 build/event.o
 .debug_line    0x0000000000000b99       0xab build/synch.o
 .debug_line    0x0000000000000c44      0x167 build/Kernel.o
 .debug_line    0x0000000000000dab       0x74 /usr/lib/gcc/arm-none-eabi/9.2.1/libgcc.a(_udivsi3.o)
 .debug_line    0x0000000000000e1f       0x57 /usr/lib/gcc/arm-none-eabi/9.2.1/libgcc.a(_dvmd_tls.o)

.debug_info     0x0000000000000000     0x3d5f
 .debug_info    0x0000000000000000       0x26 build/Entry.os
 .debug_info    0x0000000000000026      0x3f0 build/Main.o
 .debug_info    0x0000000000000416       0x82 build/Handler.o
 .debug_info    0x0000000000000498     0x124d build/Regs.o
 .debug_info    0x00000000000016e5      0x691 build/Interrupt.o
 .debug_info    0x0000000000001d76      0xd08 build/Uart.o
 .debug_info    0x0000000000002a7e      0x2c6 build/Timer.o
 .debug_info    0x0000000000002d44       0xf0 build/stdlib.o
 .debug_info    0x0000000000002e34      0x2ad build/stdio.o
 .debug_info    0x00000000000030e1       0x6e build/armcpu.o
 .debug_info    0x000000000000314f      0x283 build/task.o
 .debug_info    0x00000000000033d2      0x291 build/msg.o
 .debug_info    0x0000000000003663      0x228 build/event.o
 .debug_info    0x000000000000388b       0xdf build/synch.o
 .debug_info    0x000000000000396a      0x3a9 build/Kernel.o
 .debug_info    0x0000000000003d13       0x26 /usr/lib/gcc/arm-none-eabi/9.2.1/libgcc.a(_udivsi3.o)
 .debug_info    0x0000000000003d39       0x26 /usr/lib/gcc/arm-none-eabi/9.2.1/libgcc.a(_dvmd_tls.o)

.debug_abbrev   0x0000000000000000      0xebe
 .debug_abbrev  0x0000000000000000       0x14 build/Entry.os
 .debug_abbrev  0x0000000000000014      0x139 build/Main.o
 .debug_abbrev  0x000000000000014d       0x5e build/Handler.o
 .debug_abbrev  0x00000000000001ab      0x11a build/Regs.o
 .debug_abbrev  0x00000000000002c5      0x19c build/Interrupt.o
 .debug_abbrev  0x0000000000000461      0x1cd build/Uart.o
 .debug_abbrev  0x000000000000062e      0x132 build/Timer.o
 .debug_abbrev  0x0000000000000760       0xc3 build/stdlib.o
 .debug_abbrev  0x0000000000000823      0x131 build/stdio.o
 .debug_abbrev  0x0000000000000954       0x2e build/armcpu.o
 .debug_abbrev  0x0000000000000982      0x150 build/task.o
 .debug_abbrev  0x0000000000000ad2      0x131 build/msg.o
 .debug_abbrev  0x0000000000000c03       0xdf build/event.o
 .debug_abbrev  0x0000000000000ce2       0xab build/synch.o
 .debug_abbrev  0x0000000000000d8d      0x109 build/Kernel.o
 .debug_abbrev  0x0000000000000e96       0x14 /usr/lib/gcc/arm-none-eabi/9.2.1/libgcc.a(_udivsi3.o)
 .debug_abbrev  0x0000000000000eaa       0x14 /usr/lib/gcc/arm-none-eabi/9.2.1/libgcc.a(_dvmd_tls.o)

.debug_aranges  0x0000000000000000      0x218
 .debug_aranges
                0x0000000000000000       0x20 build/Entry.os
 .debug_aranges
                0x0000000000000020       0x20 build/Main.o
 .debug_aranges
                0x0000000000000040       0x20 build/Handler.o
 .debug_aranges
                0x0000000000000060       0x18 build/Regs.o
 .debug_aranges
                0x0000000000000078       0x20 build/Interrupt.o
 .debug_aranges
                0x0000000000000098       0x20 build/Uart.o
 .debug_aranges
                0x00000000000000b8       0x20 build/Timer.o
 .debug_aranges
                0x00000000000000d8       0x20 build/stdlib.o
 .debug_aranges
                0x00000000000000f8       0x20 build/stdio.o
 .debug_aranges
                0x0000000000000118       0x20 build/armcpu.o
 .debug_aranges
                0x0000000000000138       0x20 build/task.o
 .debug_aranges
                0x0000000000000158       0x20 build/msg.o
 .debug_aranges
                0x0000000000000178       0x20 build/event.o
 .debug_aranges
                0x0000000000000198       0x20 build/synch.o
 .debug_aranges
                0x00000000000001b8       0x20 build/Kernel.o
 .debug_aranges
                0x00000000000001d8       0x20 /usr/lib/gcc/arm-none-eabi/9.2.1/libgcc.a(_udivsi3.o)
 .debug_aranges
                0x00000000000001f8       0x20 /usr/lib/gcc/arm-none-eabi/9.2.1/libgcc.a(_dvmd_tls.o)

.debug_str      0x0000000000000000     0x120e
 .debug_str     0x0000000000000000       0x36 build/Entry.os
 .debug_str     0x0000000000000036      0x572 build/Main.o
                                        0x5ad (size before relaxing)
 .debug_str     0x00000000000005a8       0x27 build/Handler.o
                                        0x12e (size before relaxing)
 .debug_str     0x00000000000005cf      0x5b2 build/Regs.o
                                        0x6c9 (size before relaxing)
 .debug_str     0x0000000000000b81       0xc1 build/Interrupt.o
                                        0x3d8 (size before relaxing)
 .debug_str     0x0000000000000c42       0x5a build/Uart.o
                                        0x82f (size before relaxing)
 .debug_str     0x0000000000000c9c       0x62 build/Timer.o
                                        0x27a (size before relaxing)
 .debug_str     0x0000000000000cfe       0x25 build/stdlib.o
                                        0x13d (size before relaxing)
 .debug_str     0x0000000000000d23       0x73 build/stdio.o
                                        0x19d (size before relaxing)
 .debug_str     0x0000000000000d96       0x3b build/armcpu.o
                                         0xd9 (size before relaxing)
 .debug_str     0x0000000000000dd1      0x159 build/task.o
                                        0x271 (size before relaxing)
 .debug_str     0x0000000000000f2a       0xd1 build/msg.o
                                        0x23d (size before relaxing)
 .debug_str     0x0000000000000ffb       0x77 build/event.o
                                        0x50a (size before relaxing)
 .debug_str     0x0000000000001072       0x4f build/synch.o
                                        0x164 (size before relaxing)
 .debug_str     0x00000000000010c1       0xcf build/Kernel.o
                                        0x5c4 (size before relaxing)
 .debug_str     0x0000000000001190       0x7e /usr/lib/gcc/arm-none-eabi/9.2.1/libgcc.a(_udivsi3.o)
                                         0x8a (size before relaxing)
 .debug_str     0x000000000000120e       0x8a /usr/lib/gcc/arm-none-eabi/9.2.1/libgcc.a(_dvmd_tls.o)

.debug_frame    0x0000000000000000      0x888
 .debug_frame   0x0000000000000000      0x11c build/Main.o
 .debug_frame   0x000000000000011c       0x50 build/Handler.o
 .debug_frame   0x000000000000016c       0xb0 build/Interrupt.o
 .debug_frame   0x000000000000021c       0x8c build/Uart.o
 .debug_frame   0x00000000000002a8       0x70 build/Timer.o
 .debug_frame   0x0000000000000318       0x50 build/stdlib.o
 .debug_frame   0x0000000000000368       0xac build/stdio.o
 .debug_frame   0x0000000000000414       0x90 build/armcpu.o
 .debug_frame   0x00000000000004a4       0xd4 build/task.o
 .debug_frame   0x0000000000000578       0xf0 build/msg.o
 .debug_frame   0x0000000000000668       0x90 build/event.o
 .debug_frame   0x00000000000006f8       0x70 build/synch.o
 .debug_frame   0x0000000000000768      0x100 build/Kernel.o
 .debug_frame   0x0000000000000868       0x20 /usr/lib/gcc/arm-none-eabi/9.2.1/libgcc.a(_udivsi3.o)
